; Function Attrs: mustprogress nounwind uwtable
define internal void @_ZN4base8internal12_GLOBAL__N_125DictionaryHiddenRootValueD0Ev(ptr noundef nonnull align 8 dereferenceable(72) %this) unnamed_addr #4 align 2 {
entry:
  store ptr getelementptr inbounds ({ [21 x ptr] }, ptr @_ZTVN4base8internal12_GLOBAL__N_125DictionaryHiddenRootValueE, i64 0, i32 0, i64 2), ptr %this, align 8
  %json_.i = getelementptr inbounds i8, ptr %this, i64 64
  %0 = load ptr, ptr %json_.i, align 8
  %cmp.not.i.i = icmp eq ptr %0, null
  br i1 %cmp.not.i.i, label %_ZN4base8internal12_GLOBAL__N_125DictionaryHiddenRootValueD2Ev.exit, label %_ZNKSt14default_deleteINSt7__cxx1112basic_stringIcSt11char_traitsIcESaIcEEEEclEPS5_.exit.i.i

_ZNKSt14default_deleteINSt7__cxx1112basic_stringIcSt11char_traitsIcESaIcEEEEclEPS5_.exit.i.i: ; preds = %entry
  tail call void @_ZNSt7__cxx1112basic_stringIcSt11char_traitsIcESaIcEED1Ev(ptr noundef nonnull align 8 dereferenceable(32) %0) #17
  tail call void @_ZdlPv(ptr noundef nonnull %0) #18
  br label %_ZN4base8internal12_GLOBAL__N_125DictionaryHiddenRootValueD2Ev.exit

_ZN4base8internal12_GLOBAL__N_125DictionaryHiddenRootValueD2Ev.exit: ; preds = %entry, %_ZNKSt14default_deleteINSt7__cxx1112basic_stringIcSt11char_traitsIcESaIcEEEEclEPS5_.exit.i.i
  store ptr null, ptr %json_.i, align 8
  tail call void @_ZN4base15DictionaryValueD2Ev(ptr noundef nonnull align 8 dereferenceable(64) %this) #17
  tail call void @_ZdlPv(ptr noundef nonnull %this) #18
  ret void
}